target datalayout = "e-m:e-p270:32:32-p271:32:32-p272:64:64-i64:64-i128:128-f80:128-n8:16:32:64-S128"
target triple = "x86_64-pc-linux-gnu"

%"class.std::basic_string_view" = type { i64, ptr }

@.str = private unnamed_addr constant [1 x i8] zeroinitializer, align 1

; Function Attrs: mustprogress nounwind uwtable
define linkonce_odr noundef i64 @_ZNSt11char_traitsIcE6lengthEPKc(ptr noundef %0) #2 comdat align 2 {
  %2 = alloca ptr, align 8
  store ptr %0, ptr %2, align 8
  %3 = load ptr, ptr %2, align 8
  %4 = call i64 @strlen(ptr noundef %3) #1
  ret i64 %4
}

; Function Attrs: mustprogress nounwind uwtable
define linkonce_odr void @_ZNSt17basic_string_viewIcSt11char_traitsIcEEC2EPKcm(ptr noundef nonnull align 8 dereferenceable(16) %0, ptr noundef %1, i64 noundef %2) unnamed_addr #2 comdat align 2 {
  %4 = alloca ptr, align 8
  %5 = alloca ptr, align 8
  %6 = alloca i64, align 8
  store ptr %0, ptr %4, align 8
  store ptr %1, ptr %5, align 8
  store i64 %2, ptr %6, align 8
  %7 = load ptr, ptr %4, align 8
  %8 = getelementptr inbounds %"class.std::basic_string_view", ptr %7, i32 0, i32 0
  %9 = load i64, ptr %6, align 8
  store i64 %9, ptr %8, align 8
  %10 = getelementptr inbounds %"class.std::basic_string_view", ptr %7, i32 0, i32 1
  %11 = load ptr, ptr %5, align 8
  store ptr %11, ptr %10, align 8
  ret void
}

; Function Attrs: mustprogress nounwind uwtable
define linkonce_odr void @_ZNSt17basic_string_viewIcSt11char_traitsIcEEC2EPKc(ptr noundef nonnull align 8 dereferenceable(16) %0, ptr noundef nonnull %1) unnamed_addr #2 comdat align 2 {
  %3 = alloca ptr, align 8
  %4 = alloca ptr, align 8
  store ptr %0, ptr %3, align 8
  store ptr %1, ptr %4, align 8
  %5 = load ptr, ptr %3, align 8
  %6 = getelementptr inbounds %"class.std::basic_string_view", ptr %5, i32 0, i32 0
  %7 = load ptr, ptr %4, align 8
  %8 = call noundef i64 @_ZNSt11char_traitsIcE6lengthEPKc(ptr noundef %7)
  store i64 %8, ptr %6, align 8
  %9 = getelementptr inbounds %"class.std::basic_string_view", ptr %5, i32 0, i32 1
  %10 = load ptr, ptr %4, align 8
  store ptr %10, ptr %9, align 8
  ret void
}

; Function Attrs: mustprogress nounwind uwtable
define { i64, ptr } @_ZN3nix13nextComponentERPKcS1_(ptr noundef nonnull align 8 dereferenceable(8) %0, ptr noundef %1) #2 {
  %3 = alloca %"class.std::basic_string_view", align 8
  %4 = alloca ptr, align 8
  %5 = alloca ptr, align 8
  %6 = alloca ptr, align 8
  store ptr %0, ptr %4, align 8
  store ptr %1, ptr %5, align 8
  br label %7

7:                                                ; preds = %28, %2
  %8 = load ptr, ptr %4, align 8
  %9 = load ptr, ptr %8, align 8
  %10 = load ptr, ptr %5, align 8
  %11 = icmp ne ptr %9, %10
  br i1 %11, label %12, label %26

12:                                               ; preds = %7
  %13 = load ptr, ptr %4, align 8
  %14 = load ptr, ptr %13, align 8
  %15 = load i8, ptr %14, align 1
  %16 = sext i8 %15 to i32
  %17 = icmp eq i32 %16, 46
  br i1 %17, label %24, label %18

18:                                               ; preds = %12
  %19 = load ptr, ptr %4, align 8
  %20 = load ptr, ptr %19, align 8
  %21 = load i8, ptr %20, align 1
  %22 = sext i8 %21 to i32
  %23 = icmp eq i32 %22, 45
  br label %24

24:                                               ; preds = %18, %12
  %25 = phi i1 [ true, %12 ], [ %23, %18 ]
  br label %26

26:                                               ; preds = %24, %7
  %27 = phi i1 [ false, %7 ], [ %25, %24 ]
  br i1 %27, label %28, label %32

28:                                               ; preds = %26
  %29 = load ptr, ptr %4, align 8
  %30 = load ptr, ptr %29, align 8
  %31 = getelementptr inbounds i8, ptr %30, i32 1
  store ptr %31, ptr %29, align 8
  br label %7, !llvm.loop !6

32:                                               ; preds = %26
  %33 = load ptr, ptr %4, align 8
  %34 = load ptr, ptr %33, align 8
  %35 = load ptr, ptr %5, align 8
  %36 = icmp eq ptr %34, %35
  br i1 %36, label %37, label %38

37:                                               ; preds = %32
  call void @_ZNSt17basic_string_viewIcSt11char_traitsIcEEC2EPKc(ptr noundef nonnull align 8 dereferenceable(16) %3, ptr noundef @.str) #1
  br label %109

38:                                               ; preds = %32
  %39 = load ptr, ptr %4, align 8
  %40 = load ptr, ptr %39, align 8
  store ptr %40, ptr %6, align 8
  %41 = load ptr, ptr %4, align 8
  %42 = load ptr, ptr %41, align 8
  %43 = load i8, ptr %42, align 1
  %44 = sext i8 %43 to i32
  %45 = call i32 @isdigit(i32 noundef %44) #17
  %46 = icmp ne i32 %45, 0
  br i1 %46, label %47, label %67

47:                                               ; preds = %38
  br label %48

48:                                               ; preds = %62, %47
  %49 = load ptr, ptr %4, align 8
  %50 = load ptr, ptr %49, align 8
  %51 = load ptr, ptr %5, align 8
  %52 = icmp ne ptr %50, %51
  br i1 %52, label %53, label %60

53:                                               ; preds = %48
  %54 = load ptr, ptr %4, align 8
  %55 = load ptr, ptr %54, align 8
  %56 = load i8, ptr %55, align 1
  %57 = sext i8 %56 to i32
  %58 = call i32 @isdigit(i32 noundef %57) #17
  %59 = icmp ne i32 %58, 0
  br label %60

60:                                               ; preds = %53, %48
  %61 = phi i1 [ false, %48 ], [ %59, %53 ]
  br i1 %61, label %62, label %66

62:                                               ; preds = %60
  %63 = load ptr, ptr %4, align 8
  %64 = load ptr, ptr %63, align 8
  %65 = getelementptr inbounds i8, ptr %64, i32 1
  store ptr %65, ptr %63, align 8
  br label %48, !llvm.loop !7

66:                                               ; preds = %60
  br label %101

67:                                               ; preds = %38
  br label %68

68:                                               ; preds = %96, %67
  %69 = load ptr, ptr %4, align 8
  %70 = load ptr, ptr %69, align 8
  %71 = load ptr, ptr %5, align 8
  %72 = icmp ne ptr %70, %71
  br i1 %72, label %73, label %94

73:                                               ; preds = %68
  %74 = load ptr, ptr %4, align 8
  %75 = load ptr, ptr %74, align 8
  %76 = load i8, ptr %75, align 1
  %77 = sext i8 %76 to i32
  %78 = call i32 @isdigit(i32 noundef %77) #17
  %79 = icmp ne i32 %78, 0
  br i1 %79, label %92, label %80

80:                                               ; preds = %73
  %81 = load ptr, ptr %4, align 8
  %82 = load ptr, ptr %81, align 8
  %83 = load i8, ptr %82, align 1
  %84 = sext i8 %83 to i32
  %85 = icmp ne i32 %84, 46
  br i1 %85, label %86, label %92

86:                                               ; preds = %80
  %87 = load ptr, ptr %4, align 8
  %88 = load ptr, ptr %87, align 8
  %89 = load i8, ptr %88, align 1
  %90 = sext i8 %89 to i32
  %91 = icmp ne i32 %90, 45
  br label %92

92:                                               ; preds = %86, %80, %73
  %93 = phi i1 [ false, %80 ], [ false, %73 ], [ %91, %86 ]
  br label %94

94:                                               ; preds = %92, %68
  %95 = phi i1 [ false, %68 ], [ %93, %92 ]
  br i1 %95, label %96, label %100

96:                                               ; preds = %94
  %97 = load ptr, ptr %4, align 8
  %98 = load ptr, ptr %97, align 8
  %99 = getelementptr inbounds i8, ptr %98, i32 1
  store ptr %99, ptr %97, align 8
  br label %68, !llvm.loop !8

100:                                              ; preds = %94
  br label %101

101:                                              ; preds = %100, %66
  %102 = load ptr, ptr %6, align 8
  %103 = load ptr, ptr %4, align 8
  %104 = load ptr, ptr %103, align 8
  %105 = load ptr, ptr %6, align 8
  %106 = ptrtoint ptr %104 to i64
  %107 = ptrtoint ptr %105 to i64
  %108 = sub i64 %106, %107
  call void @_ZNSt17basic_string_viewIcSt11char_traitsIcEEC2EPKcm(ptr noundef nonnull align 8 dereferenceable(16) %3, ptr noundef %102, i64 noundef %108) #1
  br label %109

109:                                              ; preds = %101, %37
  %110 = load { i64, ptr }, ptr %3, align 8
  ret { i64, ptr } %110
}

; Function Attrs: mustprogress nounwind uwtable
define linkonce_odr noundef ptr @_ZNKSt17basic_string_viewIcSt11char_traitsIcEE3endEv(ptr noundef nonnull align 8 dereferenceable(16) %0) #2 comdat align 2 {
  %2 = alloca ptr, align 8
  store ptr %0, ptr %2, align 8
  %3 = load ptr, ptr %2, align 8
  %4 = getelementptr inbounds %"class.std::basic_string_view", ptr %3, i32 0, i32 1
  %5 = load ptr, ptr %4, align 8
  %6 = getelementptr inbounds %"class.std::basic_string_view", ptr %3, i32 0, i32 0
  %7 = load i64, ptr %6, align 8
  %8 = getelementptr inbounds i8, ptr %5, i64 %7
  ret ptr %8
}

; Function Attrs: mustprogress nounwind uwtable
define linkonce_odr noundef ptr @_ZNKSt17basic_string_viewIcSt11char_traitsIcEE5beginEv(ptr noundef nonnull align 8 dereferenceable(16) %0) #2 comdat align 2 {
  %2 = alloca ptr, align 8
  store ptr %0, ptr %2, align 8
  %3 = load ptr, ptr %2, align 8
  %4 = getelementptr inbounds %"class.std::basic_string_view", ptr %3, i32 0, i32 1
  %5 = load ptr, ptr %4, align 8
  ret ptr %5
}

; Function Attrs: mustprogress uwtable
define noundef i32 @_ZN3nix15compareVersionsESt17basic_string_viewIcSt11char_traitsIcEES3_(i64 %0, ptr %1, i64 %2, ptr %3) #3 {
  %5 = alloca i32, align 4
  %6 = alloca %"class.std::basic_string_view", align 8
  %7 = alloca %"class.std::basic_string_view", align 8
  %8 = alloca ptr, align 8
  %9 = alloca ptr, align 8
  %10 = alloca %"class.std::basic_string_view", align 8
  %11 = alloca %"class.std::basic_string_view", align 8
  %12 = alloca %"class.std::basic_string_view", align 8
  %13 = alloca %"class.std::basic_string_view", align 8
  %14 = alloca %"class.std::basic_string_view", align 8
  %15 = alloca %"class.std::basic_string_view", align 8
  %16 = getelementptr inbounds { i64, ptr }, ptr %6, i32 0, i32 0
  store i64 %0, ptr %16, align 8
  %17 = getelementptr inbounds { i64, ptr }, ptr %6, i32 0, i32 1
  store ptr %1, ptr %17, align 8
  %18 = getelementptr inbounds { i64, ptr }, ptr %7, i32 0, i32 0
  store i64 %2, ptr %18, align 8
  %19 = getelementptr inbounds { i64, ptr }, ptr %7, i32 0, i32 1
  store ptr %3, ptr %19, align 8
  %20 = call noundef ptr @_ZNKSt17basic_string_viewIcSt11char_traitsIcEE5beginEv(ptr noundef nonnull align 8 dereferenceable(16) %6) #1
  store ptr %20, ptr %8, align 8
  %21 = call noundef ptr @_ZNKSt17basic_string_viewIcSt11char_traitsIcEE5beginEv(ptr noundef nonnull align 8 dereferenceable(16) %7) #1
  store ptr %21, ptr %9, align 8
  br label %22

22:                                               ; preds = %67, %4
  %23 = load ptr, ptr %8, align 8
  %24 = call noundef ptr @_ZNKSt17basic_string_viewIcSt11char_traitsIcEE3endEv(ptr noundef nonnull align 8 dereferenceable(16) %6) #1
  %25 = icmp ne ptr %23, %24
  br i1 %25, label %30, label %26

26:                                               ; preds = %22
  %27 = load ptr, ptr %9, align 8
  %28 = call noundef ptr @_ZNKSt17basic_string_viewIcSt11char_traitsIcEE3endEv(ptr noundef nonnull align 8 dereferenceable(16) %7) #1
  %29 = icmp ne ptr %27, %28
  br label %30

30:                                               ; preds = %26, %22
  %31 = phi i1 [ true, %22 ], [ %29, %26 ]
  br i1 %31, label %32, label %68

32:                                               ; preds = %30
  %33 = call noundef ptr @_ZNKSt17basic_string_viewIcSt11char_traitsIcEE3endEv(ptr noundef nonnull align 8 dereferenceable(16) %6) #1
  %34 = call { i64, ptr } @_ZN3nix13nextComponentERPKcS1_(ptr noundef nonnull align 8 dereferenceable(8) %8, ptr noundef %33)
  %35 = getelementptr inbounds { i64, ptr }, ptr %10, i32 0, i32 0
  %36 = extractvalue { i64, ptr } %34, 0
  store i64 %36, ptr %35, align 8
  %37 = getelementptr inbounds { i64, ptr }, ptr %10, i32 0, i32 1
  %38 = extractvalue { i64, ptr } %34, 1
  store ptr %38, ptr %37, align 8
  %39 = call noundef ptr @_ZNKSt17basic_string_viewIcSt11char_traitsIcEE3endEv(ptr noundef nonnull align 8 dereferenceable(16) %7) #1
  %40 = call { i64, ptr } @_ZN3nix13nextComponentERPKcS1_(ptr noundef nonnull align 8 dereferenceable(8) %9, ptr noundef %39)
  %41 = getelementptr inbounds { i64, ptr }, ptr %11, i32 0, i32 0
  %42 = extractvalue { i64, ptr } %40, 0
  store i64 %42, ptr %41, align 8
  %43 = getelementptr inbounds { i64, ptr }, ptr %11, i32 0, i32 1
  %44 = extractvalue { i64, ptr } %40, 1
  store ptr %44, ptr %43, align 8
  call void @llvm.memcpy.p0.p0.i64(ptr align 8 %12, ptr align 8 %10, i64 16, i1 false)
  call void @llvm.memcpy.p0.p0.i64(ptr align 8 %13, ptr align 8 %11, i64 16, i1 false)
  %45 = getelementptr inbounds { i64, ptr }, ptr %12, i32 0, i32 0
  %46 = load i64, ptr %45, align 8
  %47 = getelementptr inbounds { i64, ptr }, ptr %12, i32 0, i32 1
  %48 = load ptr, ptr %47, align 8
  %49 = getelementptr inbounds { i64, ptr }, ptr %13, i32 0, i32 0
  %50 = load i64, ptr %49, align 8
  %51 = getelementptr inbounds { i64, ptr }, ptr %13, i32 0, i32 1
  %52 = load ptr, ptr %51, align 8
  %53 = call noundef zeroext i1 @_ZN3nixL12componentsLTESt17basic_string_viewIcSt11char_traitsIcEES3_(i64 %46, ptr %48, i64 %50, ptr %52)
  br i1 %53, label %54, label %55

54:                                               ; preds = %32
  store i32 -1, ptr %5, align 4
  br label %69

55:                                               ; preds = %32
  call void @llvm.memcpy.p0.p0.i64(ptr align 8 %14, ptr align 8 %11, i64 16, i1 false)
  call void @llvm.memcpy.p0.p0.i64(ptr align 8 %15, ptr align 8 %10, i64 16, i1 false)
  %56 = getelementptr inbounds { i64, ptr }, ptr %14, i32 0, i32 0
  %57 = load i64, ptr %56, align 8
  %58 = getelementptr inbounds { i64, ptr }, ptr %14, i32 0, i32 1
  %59 = load ptr, ptr %58, align 8
  %60 = getelementptr inbounds { i64, ptr }, ptr %15, i32 0, i32 0
  %61 = load i64, ptr %60, align 8
  %62 = getelementptr inbounds { i64, ptr }, ptr %15, i32 0, i32 1
  %63 = load ptr, ptr %62, align 8
  %64 = call noundef zeroext i1 @_ZN3nixL12componentsLTESt17basic_string_viewIcSt11char_traitsIcEES3_(i64 %57, ptr %59, i64 %61, ptr %63)
  br i1 %64, label %65, label %66

65:                                               ; preds = %55
  store i32 1, ptr %5, align 4
  br label %69

66:                                               ; preds = %55
  br label %67

67:                                               ; preds = %66
  br label %22, !llvm.loop !9

68:                                               ; preds = %30
  store i32 0, ptr %5, align 4
  br label %69

69:                                               ; preds = %68, %65, %54
  %70 = load i32, ptr %5, align 4
  ret i32 %70
}