; Function Attrs: mustprogress uwtable
define noundef i32 @_ZN3nix15compareVersionsESt17basic_string_viewIcSt11char_traitsIcEES3_(i64 %0, ptr %1, i64 %2, ptr %3) local_unnamed_addr #2 {
  %5 = getelementptr inbounds i8, ptr %3, i64 %2
  %6 = getelementptr inbounds i8, ptr %1, i64 %0
  br label %7

7:                                                ; preds = %38, %4
  %.055 = phi ptr [ %1, %4 ], [ %.560, %38 ]
  %.054 = phi ptr [ %3, %4 ], [ %.5, %38 ]
  %.not = icmp eq ptr %.055, %6
  br i1 %.not, label %8, label %.lr.ph.i

8:                                                ; preds = %7
  %.not12 = icmp eq ptr %.054, %5
  br i1 %.not12, label %40, label %_ZN3nix13nextComponentERPKcS1_.exit

.lr.ph.i:                                         ; preds = %7, %.critedge2.i
  %.156 = phi ptr [ %10, %.critedge2.i ], [ %.055, %7 ]
  %9 = load i8, ptr %.156, align 1
  %.off.i = add i8 %9, -45
  %switch.i = icmp ult i8 %.off.i, 2
  br i1 %switch.i, label %.critedge2.i, label %.critedge.i

.critedge2.i:                                     ; preds = %.lr.ph.i
  %10 = getelementptr inbounds i8, ptr %.156, i64 1
  %.not.i = icmp eq ptr %10, %6
  br i1 %.not.i, label %_ZN3nix13nextComponentERPKcS1_.exit, label %.lr.ph.i, !llvm.loop !9

.critedge.i:                                      ; preds = %.lr.ph.i
  %11 = sext i8 %9 to i32
  %isdigittmp.i = add nsw i32 %11, -48
  %isdigit.i = icmp ult i32 %isdigittmp.i, 10
  %.not3955.i = icmp eq ptr %.156, %6
  br i1 %isdigit.i, label %.preheader.i, label %.preheader46.i

.preheader46.i:                                   ; preds = %.critedge.i
  br i1 %.not3955.i, label %.critedge4.i, label %.lr.ph52.i

.preheader.i:                                     ; preds = %.critedge.i
  br i1 %.not3955.i, label %.critedge4.i, label %.lr.ph56.i

.lr.ph56.i:                                       ; preds = %.preheader.i, %14
  %.257 = phi ptr [ %15, %14 ], [ %.156, %.preheader.i ]
  %12 = load i8, ptr %.257, align 1
  %13 = sext i8 %12 to i32
  %isdigittmp40.i = add nsw i32 %13, -48
  %isdigit41.i = icmp ult i32 %isdigittmp40.i, 10
  br i1 %isdigit41.i, label %14, label %.critedge4.i

14:                                               ; preds = %.lr.ph56.i
  %15 = getelementptr inbounds i8, ptr %.257, i64 1
  %.not39.i = icmp eq ptr %15, %6
  br i1 %.not39.i, label %.critedge4.i, label %.lr.ph56.i, !llvm.loop !10

.lr.ph52.i:                                       ; preds = %.preheader46.i, %18
  %.358 = phi ptr [ %19, %18 ], [ %.156, %.preheader46.i ]
  %16 = load i8, ptr %.358, align 1
  %.fr45.i = freeze i8 %16
  %17 = sext i8 %.fr45.i to i32
  %isdigittmp35.i = add nsw i32 %17, -48
  %isdigit36.i = icmp ult i32 %isdigittmp35.i, 10
  %.off43.i = add i8 %.fr45.i, -45
  %switch44.i = icmp ult i8 %.off43.i, 2
  %or.cond.i = or i1 %switch44.i, %isdigit36.i
  br i1 %or.cond.i, label %.critedge4.i, label %18

18:                                               ; preds = %.lr.ph52.i
  %19 = getelementptr inbounds i8, ptr %.358, i64 1
  %.not34.i = icmp eq ptr %19, %6
  br i1 %.not34.i, label %.critedge4.i, label %.lr.ph52.i, !llvm.loop !11

.critedge4.i:                                     ; preds = %18, %.lr.ph52.i, %14, %.lr.ph56.i, %.preheader.i, %.preheader46.i
  %.459 = phi ptr [ %6, %.preheader.i ], [ %6, %.preheader46.i ], [ %.257, %.lr.ph56.i ], [ %6, %14 ], [ %6, %18 ], [ %.358, %.lr.ph52.i ]
  %20 = ptrtoint ptr %.459 to i64
  %21 = ptrtoint ptr %.156 to i64
  %22 = sub i64 %20, %21
  br label %_ZN3nix13nextComponentERPKcS1_.exit

_ZN3nix13nextComponentERPKcS1_.exit:              ; preds = %.critedge2.i, %8, %.critedge4.i
  %.560 = phi ptr [ %.459, %.critedge4.i ], [ %6, %8 ], [ %6, %.critedge2.i ]
  %.sroa.3.0.i = phi ptr [ %.156, %.critedge4.i ], [ @.str, %8 ], [ @.str, %.critedge2.i ]
  %.sroa.0.0.i = phi i64 [ %22, %.critedge4.i ], [ 0, %8 ], [ 0, %.critedge2.i ]
  %.not49.i14 = icmp eq ptr %.054, %5
  br i1 %.not49.i14, label %_ZN3nix13nextComponentERPKcS1_.exit44, label %.lr.ph.i15

.lr.ph.i15:                                       ; preds = %_ZN3nix13nextComponentERPKcS1_.exit, %.critedge2.i42
  %.1 = phi ptr [ %24, %.critedge2.i42 ], [ %.054, %_ZN3nix13nextComponentERPKcS1_.exit ]
  %23 = load i8, ptr %.1, align 1
  %.off.i17 = add i8 %23, -45
  %switch.i18 = icmp ult i8 %.off.i17, 2
  br i1 %switch.i18, label %.critedge2.i42, label %.critedge.i19

.critedge2.i42:                                   ; preds = %.lr.ph.i15
  %24 = getelementptr inbounds i8, ptr %.1, i64 1
  %.not.i43 = icmp eq ptr %24, %5
  br i1 %.not.i43, label %_ZN3nix13nextComponentERPKcS1_.exit44, label %.lr.ph.i15, !llvm.loop !9

.critedge.i19:                                    ; preds = %.lr.ph.i15
  %25 = sext i8 %23 to i32
  %isdigittmp.i20 = add nsw i32 %25, -48
  %isdigit.i21 = icmp ult i32 %isdigittmp.i20, 10
  %.not3955.i22 = icmp eq ptr %.1, %5
  br i1 %isdigit.i21, label %.preheader.i37, label %.preheader46.i23

.preheader46.i23:                                 ; preds = %.critedge.i19
  br i1 %.not3955.i22, label %.critedge4.i32, label %.lr.ph52.i24

.preheader.i37:                                   ; preds = %.critedge.i19
  br i1 %.not3955.i22, label %.critedge4.i32, label %.lr.ph56.i38

.lr.ph56.i38:                                     ; preds = %.preheader.i37, %28
  %.2 = phi ptr [ %29, %28 ], [ %.1, %.preheader.i37 ]
  %26 = load i8, ptr %.2, align 1
  %27 = sext i8 %26 to i32
  %isdigittmp40.i39 = add nsw i32 %27, -48
  %isdigit41.i40 = icmp ult i32 %isdigittmp40.i39, 10
  br i1 %isdigit41.i40, label %28, label %.critedge4.i32

28:                                               ; preds = %.lr.ph56.i38
  %29 = getelementptr inbounds i8, ptr %.2, i64 1
  %.not39.i41 = icmp eq ptr %29, %5
  br i1 %.not39.i41, label %.critedge4.i32, label %.lr.ph56.i38, !llvm.loop !10

.lr.ph52.i24:                                     ; preds = %.preheader46.i23, %32
  %.3 = phi ptr [ %33, %32 ], [ %.1, %.preheader46.i23 ]
  %30 = load i8, ptr %.3, align 1
  %.fr45.i25 = freeze i8 %30
  %31 = sext i8 %.fr45.i25 to i32
  %isdigittmp35.i26 = add nsw i32 %31, -48
  %isdigit36.i27 = icmp ult i32 %isdigittmp35.i26, 10
  %.off43.i28 = add i8 %.fr45.i25, -45
  %switch44.i29 = icmp ult i8 %.off43.i28, 2
  %or.cond.i30 = or i1 %switch44.i29, %isdigit36.i27
  br i1 %or.cond.i30, label %.critedge4.i32, label %32

32:                                               ; preds = %.lr.ph52.i24
  %33 = getelementptr inbounds i8, ptr %.3, i64 1
  %.not34.i31 = icmp eq ptr %33, %5
  br i1 %.not34.i31, label %.critedge4.i32, label %.lr.ph52.i24, !llvm.loop !11

.critedge4.i32:                                   ; preds = %32, %.lr.ph52.i24, %28, %.lr.ph56.i38, %.preheader.i37, %.preheader46.i23
  %.4 = phi ptr [ %5, %.preheader.i37 ], [ %5, %.preheader46.i23 ], [ %.2, %.lr.ph56.i38 ], [ %5, %28 ], [ %5, %32 ], [ %.3, %.lr.ph52.i24 ]
  %34 = ptrtoint ptr %.4 to i64
  %35 = ptrtoint ptr %.1 to i64
  %36 = sub i64 %34, %35
  br label %_ZN3nix13nextComponentERPKcS1_.exit44

_ZN3nix13nextComponentERPKcS1_.exit44:            ; preds = %.critedge2.i42, %_ZN3nix13nextComponentERPKcS1_.exit, %.critedge4.i32
  %.5 = phi ptr [ %5, %_ZN3nix13nextComponentERPKcS1_.exit ], [ %.4, %.critedge4.i32 ], [ %5, %.critedge2.i42 ]
  %.sroa.3.0.i33 = phi ptr [ @.str, %_ZN3nix13nextComponentERPKcS1_.exit ], [ %.1, %.critedge4.i32 ], [ @.str, %.critedge2.i42 ]
  %.sroa.0.0.i34 = phi i64 [ 0, %_ZN3nix13nextComponentERPKcS1_.exit ], [ %36, %.critedge4.i32 ], [ 0, %.critedge2.i42 ]
  %37 = tail call fastcc noundef zeroext i1 @_ZN3nixL12componentsLTESt17basic_string_viewIcSt11char_traitsIcEES3_(i64 %.sroa.0.0.i, ptr nonnull %.sroa.3.0.i, i64 %.sroa.0.0.i34, ptr nonnull %.sroa.3.0.i33)
  br i1 %37, label %40, label %38

38:                                               ; preds = %_ZN3nix13nextComponentERPKcS1_.exit44
  %39 = tail call fastcc noundef zeroext i1 @_ZN3nixL12componentsLTESt17basic_string_viewIcSt11char_traitsIcEES3_(i64 %.sroa.0.0.i34, ptr nonnull %.sroa.3.0.i33, i64 %.sroa.0.0.i, ptr nonnull %.sroa.3.0.i)
  br i1 %39, label %40, label %7, !llvm.loop !12

40:                                               ; preds = %8, %38, %_ZN3nix13nextComponentERPKcS1_.exit44
  %.0 = phi i32 [ -1, %_ZN3nix13nextComponentERPKcS1_.exit44 ], [ 1, %38 ], [ 0, %8 ]
  ret i32 %.0
}